; Function Attrs: mustprogress uwtable
define internal noundef i32 @_ZL17PskServerCallbackP6ssl_stPKcPhj(ptr noundef %0, ptr noundef readonly captures(none) %1, ptr noundef writeonly captures(none) %2, i32 noundef %3) #10 {
  %5 = load i32, ptr @_ZL14g_config_index, align 4, !tbaa !6
  %6 = tail call noundef ptr @SSL_get_ex_data(ptr noundef %0, i32 noundef %5)
  %7 = getelementptr inbounds nuw i8, ptr %6, i64 560
  %8 = load ptr, ptr %7, align 8, !tbaa !45
  %9 = tail call i32 @strcmp(ptr noundef nonnull dereferenceable(1) %1, ptr noundef nonnull dereferenceable(1) %8) #36
  %.not = icmp eq i32 %9, 0
  br i1 %.not, label %13, label %10

10:                                               ; preds = %4
  %11 = load ptr, ptr @stderr, align 8, !tbaa !33
  %12 = tail call i64 @fwrite(ptr nonnull @.str.35, i64 35, i64 1, ptr %11) #32
  br label %26

13:                                               ; preds = %4
  %14 = getelementptr inbounds nuw i8, ptr %6, i64 536
  %15 = load i64, ptr %14, align 8, !tbaa !14
  %16 = zext i32 %3 to i64
  %17 = icmp ugt i64 %15, %16
  br i1 %17, label %18, label %21

18:                                               ; preds = %13
  %19 = load ptr, ptr @stderr, align 8, !tbaa !33
  %20 = tail call i64 @fwrite(ptr nonnull @.str.34, i64 22, i64 1, ptr %19) #32
  br label %26

21:                                               ; preds = %13
  %22 = getelementptr inbounds nuw i8, ptr %6, i64 528
  %23 = load ptr, ptr %22, align 8, !tbaa !45
  tail call void @llvm.memcpy.p0.p0.i64(ptr align 1 %2, ptr align 1 %23, i64 %15, i1 false)
  %24 = load i64, ptr %14, align 8, !tbaa !14
  %25 = trunc i64 %24 to i32
  br label %26

26:                                               ; preds = %21, %18, %10
  %.0 = phi i32 [ 0, %10 ], [ 0, %18 ], [ %25, %21 ]
  ret i32 %.0
}